target datalayout = "e-m:e-p270:32:32-p271:32:32-p272:64:64-i64:64-i128:128-f80:128-n8:16:32:64-S128"
target triple = "x86_64-pc-linux-gnu"

%struct.FLAC__StreamMetadata = type { i32, i32, i32, %union.anon }
%union.anon = type { %struct.FLAC__StreamMetadata_CueSheet }
%struct.FLAC__StreamMetadata_CueSheet = type { [129 x i8], i64, i32, i32, ptr }
%struct.FLAC__StreamMetadata_CueSheet_Track = type { i64, i8, [13 x i8], i8, i8, ptr }
%struct.FLAC__StreamMetadata_CueSheet_Index = type { i64, i8 }

@.str.1 = private unnamed_addr constant [12 x i8] c"CATALOG %s\0A\00", align 1
@.str.2 = private unnamed_addr constant [9 x i8] c"FILE %s\0A\00", align 1
@.str.3 = private unnamed_addr constant [17 x i8] c"  TRACK %02u %s\0A\00", align 1
@.str.4 = private unnamed_addr constant [6 x i8] c"AUDIO\00", align 1
@.str.5 = private unnamed_addr constant [5 x i8] c"DATA\00", align 1
@.str.6 = private unnamed_addr constant [15 x i8] c"    FLAGS PRE\0A\00", align 1
@.str.7 = private unnamed_addr constant [13 x i8] c"    ISRC %s\0A\00", align 1
@.str.8 = private unnamed_addr constant [16 x i8] c"    INDEX %02u \00", align 1
@.str.9 = private unnamed_addr constant [16 x i8] c"%02u:%02u:%02u\0A\00", align 1
@.str.10 = private unnamed_addr constant [5 x i8] c"%lu\0A\00", align 1
@.str.11 = private unnamed_addr constant [23 x i8] c"REM FLAC__lead-in %lu\0A\00", align 1
@.str.12 = private unnamed_addr constant [27 x i8] c"REM FLAC__lead-out %u %lu\0A\00", align 1

; Function Attrs: nounwind sspstrong uwtable
define dso_local void @grabbag__cuesheet_frame_to_msf(i32 noundef %0, ptr noundef %1, ptr noundef %2, ptr noundef %3) #0 {
  %5 = alloca i32, align 4
  %6 = alloca ptr, align 8
  %7 = alloca ptr, align 8
  %8 = alloca ptr, align 8
  store i32 %0, ptr %5, align 4, !tbaa !4
  store ptr %1, ptr %6, align 8, !tbaa !8
  store ptr %2, ptr %7, align 8, !tbaa !8
  store ptr %3, ptr %8, align 8, !tbaa !8
  %9 = load i32, ptr %5, align 4, !tbaa !4
  %10 = urem i32 %9, 75
  %11 = load ptr, ptr %8, align 8, !tbaa !8
  store i32 %10, ptr %11, align 4, !tbaa !4
  %12 = load i32, ptr %5, align 4, !tbaa !4
  %13 = udiv i32 %12, 75
  store i32 %13, ptr %5, align 4, !tbaa !4
  %14 = load i32, ptr %5, align 4, !tbaa !4
  %15 = urem i32 %14, 60
  %16 = load ptr, ptr %7, align 8, !tbaa !8
  store i32 %15, ptr %16, align 4, !tbaa !4
  %17 = load i32, ptr %5, align 4, !tbaa !4
  %18 = udiv i32 %17, 60
  store i32 %18, ptr %5, align 4, !tbaa !4
  %19 = load i32, ptr %5, align 4, !tbaa !4
  %20 = load ptr, ptr %6, align 8, !tbaa !8
  store i32 %19, ptr %20, align 4, !tbaa !4
  ret void
}

; Function Attrs: nounwind sspstrong uwtable
define dso_local void @grabbag__cuesheet_emit(ptr noundef %0, ptr noundef %1, ptr noundef %2) #0 {
  %4 = alloca ptr, align 8
  %5 = alloca ptr, align 8
  %6 = alloca ptr, align 8
  %7 = alloca ptr, align 8
  %8 = alloca i32, align 4
  %9 = alloca i32, align 4
  %10 = alloca ptr, align 8
  %11 = alloca ptr, align 8
  %12 = alloca i32, align 4
  %13 = alloca i32, align 4
  %14 = alloca i32, align 4
  %15 = alloca i32, align 4
  store ptr %0, ptr %4, align 8, !tbaa !11
  store ptr %1, ptr %5, align 8, !tbaa !17
  store ptr %2, ptr %6, align 8, !tbaa !19
  call void @llvm.lifetime.start.p0(i64 8, ptr %7) #8
  call void @llvm.lifetime.start.p0(i64 4, ptr %8) #8
  call void @llvm.lifetime.start.p0(i64 4, ptr %9) #8
  %16 = load ptr, ptr %5, align 8, !tbaa !17
  %17 = getelementptr inbounds nuw %struct.FLAC__StreamMetadata, ptr %16, i32 0, i32 3
  store ptr %17, ptr %7, align 8, !tbaa !21
  %18 = load ptr, ptr %7, align 8, !tbaa !21
  %19 = getelementptr inbounds nuw %struct.FLAC__StreamMetadata_CueSheet, ptr %18, i32 0, i32 0
  %20 = getelementptr inbounds [129 x i8], ptr %19, i64 0, i64 0
  %21 = load i8, ptr %20, align 8, !tbaa !25
  %22 = icmp ne i8 %21, 0
  br i1 %22, label %23, label %29

23:                                               ; preds = %3
  %24 = load ptr, ptr %4, align 8, !tbaa !11
  %25 = load ptr, ptr %7, align 8, !tbaa !21
  %26 = getelementptr inbounds nuw %struct.FLAC__StreamMetadata_CueSheet, ptr %25, i32 0, i32 0
  %27 = getelementptr inbounds [129 x i8], ptr %26, i64 0, i64 0
  %28 = call i32 (ptr, i32, ptr, ...) @__fprintf_chk(ptr noundef %24, i32 noundef 1, ptr noundef @.str.1, ptr noundef %27)
  br label %29

29:                                               ; preds = %23, %3
  %30 = load ptr, ptr %4, align 8, !tbaa !11
  %31 = load ptr, ptr %6, align 8, !tbaa !19
  %32 = call i32 (ptr, i32, ptr, ...) @__fprintf_chk(ptr noundef %30, i32 noundef 1, ptr noundef @.str.2, ptr noundef %31)
  store i32 0, ptr %8, align 4, !tbaa !4
  br label %33

33:                                               ; preds = %138, %29
  %34 = load i32, ptr %8, align 4, !tbaa !4
  %35 = load ptr, ptr %7, align 8, !tbaa !21
  %36 = getelementptr inbounds nuw %struct.FLAC__StreamMetadata_CueSheet, ptr %35, i32 0, i32 3
  %37 = load i32, ptr %36, align 4, !tbaa !27
  %38 = sub i32 %37, 1
  %39 = icmp ult i32 %34, %38
  br i1 %39, label %40, label %141

40:                                               ; preds = %33
  call void @llvm.lifetime.start.p0(i64 8, ptr %10) #8
  %41 = load ptr, ptr %7, align 8, !tbaa !21
  %42 = getelementptr inbounds nuw %struct.FLAC__StreamMetadata_CueSheet, ptr %41, i32 0, i32 4
  %43 = load ptr, ptr %42, align 8, !tbaa !26
  %44 = load i32, ptr %8, align 4, !tbaa !4
  %45 = zext i32 %44 to i64
  %46 = getelementptr inbounds nuw %struct.FLAC__StreamMetadata_CueSheet_Track, ptr %43, i64 %45
  store ptr %46, ptr %10, align 8, !tbaa !21
  %47 = load ptr, ptr %4, align 8, !tbaa !11
  %48 = load ptr, ptr %10, align 8, !tbaa !21
  %49 = getelementptr inbounds nuw %struct.FLAC__StreamMetadata_CueSheet_Track, ptr %48, i32 0, i32 1
  %50 = load i8, ptr %49, align 8, !tbaa !38
  %51 = zext i8 %50 to i32
  %52 = load ptr, ptr %10, align 8, !tbaa !21
  %53 = getelementptr inbounds nuw %struct.FLAC__StreamMetadata_CueSheet_Track, ptr %52, i32 0, i32 3
  %54 = load i8, ptr %53, align 2
  %55 = and i8 %54, 1
  %56 = zext i8 %55 to i32
  %57 = icmp eq i32 %56, 0
  %58 = select i1 %57, ptr @.str.4, ptr @.str.5
  %59 = call i32 (ptr, i32, ptr, ...) @__fprintf_chk(ptr noundef %47, i32 noundef 1, ptr noundef @.str.3, i32 noundef %51, ptr noundef %58)
  %60 = load ptr, ptr %10, align 8, !tbaa !21
  %61 = getelementptr inbounds nuw %struct.FLAC__StreamMetadata_CueSheet_Track, ptr %60, i32 0, i32 3
  %62 = load i8, ptr %61, align 2
  %63 = lshr i8 %62, 1
  %64 = and i8 %63, 1
  %65 = zext i8 %64 to i32
  %66 = icmp ne i32 %65, 0
  br i1 %66, label %67, label %70

67:                                               ; preds = %40
  %68 = load ptr, ptr %4, align 8, !tbaa !11
  %69 = call i32 (ptr, i32, ptr, ...) @__fprintf_chk(ptr noundef %68, i32 noundef 1, ptr noundef @.str.6)
  br label %70

70:                                               ; preds = %67, %40
  %71 = load ptr, ptr %10, align 8, !tbaa !21
  %72 = getelementptr inbounds nuw %struct.FLAC__StreamMetadata_CueSheet_Track, ptr %71, i32 0, i32 2
  %73 = getelementptr inbounds [13 x i8], ptr %72, i64 0, i64 0
  %74 = load i8, ptr %73, align 1, !tbaa !25
  %75 = icmp ne i8 %74, 0
  br i1 %75, label %76, label %82

76:                                               ; preds = %70
  %77 = load ptr, ptr %4, align 8, !tbaa !11
  %78 = load ptr, ptr %10, align 8, !tbaa !21
  %79 = getelementptr inbounds nuw %struct.FLAC__StreamMetadata_CueSheet_Track, ptr %78, i32 0, i32 2
  %80 = getelementptr inbounds [13 x i8], ptr %79, i64 0, i64 0
  %81 = call i32 (ptr, i32, ptr, ...) @__fprintf_chk(ptr noundef %77, i32 noundef 1, ptr noundef @.str.7, ptr noundef %80)
  br label %82

82:                                               ; preds = %76, %70
  store i32 0, ptr %9, align 4, !tbaa !4
  br label %83

83:                                               ; preds = %134, %82
  %84 = load i32, ptr %9, align 4, !tbaa !4
  %85 = load ptr, ptr %10, align 8, !tbaa !21
  %86 = getelementptr inbounds nuw %struct.FLAC__StreamMetadata_CueSheet_Track, ptr %85, i32 0, i32 4
  %87 = load i8, ptr %86, align 1, !tbaa !30
  %88 = zext i8 %87 to i32
  %89 = icmp ult i32 %84, %88
  br i1 %89, label %90, label %137

90:                                               ; preds = %83
  call void @llvm.lifetime.start.p0(i64 8, ptr %11) #8
  %91 = load ptr, ptr %10, align 8, !tbaa !21
  %92 = getelementptr inbounds nuw %struct.FLAC__StreamMetadata_CueSheet_Track, ptr %91, i32 0, i32 5
  %93 = load ptr, ptr %92, align 8, !tbaa !32
  %94 = load i32, ptr %9, align 4, !tbaa !4
  %95 = zext i32 %94 to i64
  %96 = getelementptr inbounds nuw %struct.FLAC__StreamMetadata_CueSheet_Index, ptr %93, i64 %95
  store ptr %96, ptr %11, align 8, !tbaa !21
  %97 = load ptr, ptr %4, align 8, !tbaa !11
  %98 = load ptr, ptr %11, align 8, !tbaa !21
  %99 = getelementptr inbounds nuw %struct.FLAC__StreamMetadata_CueSheet_Index, ptr %98, i32 0, i32 1
  %100 = load i8, ptr %99, align 8, !tbaa !33
  %101 = zext i8 %100 to i32
  %102 = call i32 (ptr, i32, ptr, ...) @__fprintf_chk(ptr noundef %97, i32 noundef 1, ptr noundef @.str.8, i32 noundef %101)
  %103 = load ptr, ptr %7, align 8, !tbaa !21
  %104 = getelementptr inbounds nuw %struct.FLAC__StreamMetadata_CueSheet, ptr %103, i32 0, i32 2
  %105 = load i32, ptr %104, align 8, !tbaa !24
  %106 = icmp ne i32 %105, 0
  br i1 %106, label %107, label %123

107:                                              ; preds = %90
  call void @llvm.lifetime.start.p0(i64 4, ptr %12) #8
  %108 = load ptr, ptr %10, align 8, !tbaa !21
  %109 = getelementptr inbounds nuw %struct.FLAC__StreamMetadata_CueSheet_Track, ptr %108, i32 0, i32 0
  %110 = load i64, ptr %109, align 8, !tbaa !36
  %111 = load ptr, ptr %11, align 8, !tbaa !21
  %112 = getelementptr inbounds nuw %struct.FLAC__StreamMetadata_CueSheet_Index, ptr %111, i32 0, i32 0
  %113 = load i64, ptr %112, align 8, !tbaa !35
  %114 = add i64 %110, %113
  %115 = udiv i64 %114, 588
  %116 = trunc i64 %115 to i32
  store i32 %116, ptr %12, align 4, !tbaa !4
  call void @llvm.lifetime.start.p0(i64 4, ptr %13) #8
  call void @llvm.lifetime.start.p0(i64 4, ptr %14) #8
  call void @llvm.lifetime.start.p0(i64 4, ptr %15) #8
  %117 = load i32, ptr %12, align 4, !tbaa !4
  call void @grabbag__cuesheet_frame_to_msf(i32 noundef %117, ptr noundef %13, ptr noundef %14, ptr noundef %15)
  %118 = load ptr, ptr %4, align 8, !tbaa !11
  %119 = load i32, ptr %13, align 4, !tbaa !4
  %120 = load i32, ptr %14, align 4, !tbaa !4
  %121 = load i32, ptr %15, align 4, !tbaa !4
  %122 = call i32 (ptr, i32, ptr, ...) @__fprintf_chk(ptr noundef %118, i32 noundef 1, ptr noundef @.str.9, i32 noundef %119, i32 noundef %120, i32 noundef %121)
  call void @llvm.lifetime.end.p0(i64 4, ptr %15) #8
  call void @llvm.lifetime.end.p0(i64 4, ptr %14) #8
  call void @llvm.lifetime.end.p0(i64 4, ptr %13) #8
  call void @llvm.lifetime.end.p0(i64 4, ptr %12) #8
  br label %133

123:                                              ; preds = %90
  %124 = load ptr, ptr %4, align 8, !tbaa !11
  %125 = load ptr, ptr %10, align 8, !tbaa !21
  %126 = getelementptr inbounds nuw %struct.FLAC__StreamMetadata_CueSheet_Track, ptr %125, i32 0, i32 0
  %127 = load i64, ptr %126, align 8, !tbaa !36
  %128 = load ptr, ptr %11, align 8, !tbaa !21
  %129 = getelementptr inbounds nuw %struct.FLAC__StreamMetadata_CueSheet_Index, ptr %128, i32 0, i32 0
  %130 = load i64, ptr %129, align 8, !tbaa !35
  %131 = add i64 %127, %130
  %132 = call i32 (ptr, i32, ptr, ...) @__fprintf_chk(ptr noundef %124, i32 noundef 1, ptr noundef @.str.10, i64 noundef %131)
  br label %133

133:                                              ; preds = %123, %107
  call void @llvm.lifetime.end.p0(i64 8, ptr %11) #8
  br label %134

134:                                              ; preds = %133
  %135 = load i32, ptr %9, align 4, !tbaa !4
  %136 = add i32 %135, 1
  store i32 %136, ptr %9, align 4, !tbaa !4
  br label %83, !llvm.loop !40

137:                                              ; preds = %83
  call void @llvm.lifetime.end.p0(i64 8, ptr %10) #8
  br label %138

138:                                              ; preds = %137
  %139 = load i32, ptr %8, align 4, !tbaa !4
  %140 = add i32 %139, 1
  store i32 %140, ptr %8, align 4, !tbaa !4
  br label %33, !llvm.loop !41

141:                                              ; preds = %33
  %142 = load ptr, ptr %4, align 8, !tbaa !11
  %143 = load ptr, ptr %7, align 8, !tbaa !21
  %144 = getelementptr inbounds nuw %struct.FLAC__StreamMetadata_CueSheet, ptr %143, i32 0, i32 1
  %145 = load i64, ptr %144, align 8, !tbaa !22
  %146 = call i32 (ptr, i32, ptr, ...) @__fprintf_chk(ptr noundef %142, i32 noundef 1, ptr noundef @.str.11, i64 noundef %145)
  %147 = load ptr, ptr %4, align 8, !tbaa !11
  %148 = load ptr, ptr %7, align 8, !tbaa !21
  %149 = getelementptr inbounds nuw %struct.FLAC__StreamMetadata_CueSheet, ptr %148, i32 0, i32 4
  %150 = load ptr, ptr %149, align 8, !tbaa !26
  %151 = load i32, ptr %8, align 4, !tbaa !4
  %152 = zext i32 %151 to i64
  %153 = getelementptr inbounds nuw %struct.FLAC__StreamMetadata_CueSheet_Track, ptr %150, i64 %152
  %154 = getelementptr inbounds nuw %struct.FLAC__StreamMetadata_CueSheet_Track, ptr %153, i32 0, i32 1
  %155 = load i8, ptr %154, align 8, !tbaa !38
  %156 = zext i8 %155 to i32
  %157 = load ptr, ptr %7, align 8, !tbaa !21
  %158 = getelementptr inbounds nuw %struct.FLAC__StreamMetadata_CueSheet, ptr %157, i32 0, i32 4
  %159 = load ptr, ptr %158, align 8, !tbaa !26
  %160 = load i32, ptr %8, align 4, !tbaa !4
  %161 = zext i32 %160 to i64
  %162 = getelementptr inbounds nuw %struct.FLAC__StreamMetadata_CueSheet_Track, ptr %159, i64 %161
  %163 = getelementptr inbounds nuw %struct.FLAC__StreamMetadata_CueSheet_Track, ptr %162, i32 0, i32 0
  %164 = load i64, ptr %163, align 8, !tbaa !36
  %165 = call i32 (ptr, i32, ptr, ...) @__fprintf_chk(ptr noundef %147, i32 noundef 1, ptr noundef @.str.12, i32 noundef %156, i64 noundef %164)
  call void @llvm.lifetime.end.p0(i64 4, ptr %9) #8
  call void @llvm.lifetime.end.p0(i64 4, ptr %8) #8
  call void @llvm.lifetime.end.p0(i64 8, ptr %7) #8
  ret void
}