; Function Attrs: nounwind sspstrong uwtable
define dso_local void @grabbag__cuesheet_emit(ptr noundef %0, ptr noundef %1, ptr noundef %2) local_unnamed_addr #2 {
  %4 = getelementptr inbounds nuw i8, ptr %1, i64 16
  %5 = load i8, ptr %4, align 8, !tbaa !15
  %.not = icmp eq i8 %5, 0
  br i1 %.not, label %8, label %6

6:                                                ; preds = %3
  %7 = tail call i32 (ptr, i32, ptr, ...) @__fprintf_chk(ptr noundef %0, i32 noundef 1, ptr noundef nonnull @.str.1, ptr noundef nonnull %4) #13
  br label %8

8:                                                ; preds = %6, %3
  %9 = tail call i32 (ptr, i32, ptr, ...) @__fprintf_chk(ptr noundef %0, i32 noundef 1, ptr noundef nonnull @.str.2, ptr noundef %2) #13
  %10 = getelementptr inbounds nuw i8, ptr %1, i64 164
  %11 = load i32, ptr %10, align 4, !tbaa !20
  %.not51 = icmp eq i32 %11, 1
  br i1 %.not51, label %._crit_edge50, label %.lr.ph49

.lr.ph49:                                         ; preds = %8
  %12 = getelementptr inbounds nuw i8, ptr %1, i64 168
  %13 = getelementptr inbounds nuw i8, ptr %1, i64 160
  br label %14

14:                                               ; preds = %.lr.ph49, %._crit_edge
  %indvars.iv54 = phi i64 [ 0, %.lr.ph49 ], [ %indvars.iv.next55, %._crit_edge ]
  %15 = load ptr, ptr %12, align 8, !tbaa !19
  %16 = getelementptr inbounds nuw %struct.FLAC__StreamMetadata_CueSheet_Track, ptr %15, i64 %indvars.iv54
  %17 = getelementptr inbounds nuw i8, ptr %16, i64 8
  %18 = load i8, ptr %17, align 8, !tbaa !31
  %19 = zext i8 %18 to i32
  %20 = getelementptr inbounds nuw i8, ptr %16, i64 22
  %21 = load i8, ptr %20, align 2
  %22 = and i8 %21, 1
  %23 = icmp eq i8 %22, 0
  %24 = select i1 %23, ptr @.str.4, ptr @.str.5
  %25 = tail call i32 (ptr, i32, ptr, ...) @__fprintf_chk(ptr noundef %0, i32 noundef 1, ptr noundef nonnull @.str.3, i32 noundef %19, ptr noundef nonnull %24) #13
  %26 = load i8, ptr %20, align 2
  %27 = and i8 %26, 2
  %.not41 = icmp eq i8 %27, 0
  br i1 %.not41, label %30, label %28

28:                                               ; preds = %14
  %29 = tail call i32 (ptr, i32, ptr, ...) @__fprintf_chk(ptr noundef %0, i32 noundef 1, ptr noundef nonnull @.str.6) #13
  br label %30

30:                                               ; preds = %28, %14
  %31 = getelementptr inbounds nuw i8, ptr %16, i64 9
  %32 = load i8, ptr %31, align 1, !tbaa !15
  %.not42 = icmp eq i8 %32, 0
  br i1 %.not42, label %35, label %33

33:                                               ; preds = %30
  %34 = tail call i32 (ptr, i32, ptr, ...) @__fprintf_chk(ptr noundef %0, i32 noundef 1, ptr noundef nonnull @.str.7, ptr noundef nonnull %31) #13
  br label %35

35:                                               ; preds = %33, %30
  %36 = getelementptr inbounds nuw i8, ptr %16, i64 23
  %37 = load i8, ptr %36, align 1, !tbaa !23
  %.not52 = icmp eq i8 %37, 0
  br i1 %.not52, label %._crit_edge, label %.lr.ph

.lr.ph:                                           ; preds = %35
  %38 = getelementptr inbounds nuw i8, ptr %16, i64 24
  br label %39

39:                                               ; preds = %.lr.ph, %60
  %indvars.iv = phi i64 [ 0, %.lr.ph ], [ %indvars.iv.next, %60 ]
  %40 = load ptr, ptr %38, align 8, !tbaa !25
  %41 = getelementptr inbounds nuw %struct.FLAC__StreamMetadata_CueSheet_Index, ptr %40, i64 %indvars.iv
  %42 = getelementptr inbounds nuw i8, ptr %41, i64 8
  %43 = load i8, ptr %42, align 8, !tbaa !26
  %44 = zext i8 %43 to i32
  %45 = tail call i32 (ptr, i32, ptr, ...) @__fprintf_chk(ptr noundef %0, i32 noundef 1, ptr noundef nonnull @.str.8, i32 noundef %44) #13
  %46 = load i32, ptr %13, align 8, !tbaa !14
  %.not43 = icmp eq i32 %46, 0
  %47 = load i64, ptr %16, align 8, !tbaa !29
  %48 = load i64, ptr %41, align 8, !tbaa !28
  %49 = add i64 %48, %47
  br i1 %.not43, label %58, label %50

50:                                               ; preds = %39
  %51 = udiv i64 %49, 588
  %52 = trunc i64 %51 to i32
  %53 = urem i32 %52, 75
  %54 = udiv i32 %52, 75
  %55 = urem i32 %54, 60
  %56 = udiv i32 %52, 4500
  %57 = tail call i32 (ptr, i32, ptr, ...) @__fprintf_chk(ptr noundef %0, i32 noundef 1, ptr noundef nonnull @.str.9, i32 noundef %56, i32 noundef %55, i32 noundef %53) #13
  br label %60

58:                                               ; preds = %39
  %59 = tail call i32 (ptr, i32, ptr, ...) @__fprintf_chk(ptr noundef %0, i32 noundef 1, ptr noundef nonnull @.str.10, i64 noundef %49) #13
  br label %60

60:                                               ; preds = %58, %50
  %indvars.iv.next = add nuw nsw i64 %indvars.iv, 1
  %61 = load i8, ptr %36, align 1, !tbaa !23
  %62 = zext i8 %61 to i64
  %63 = icmp samesign ult i64 %indvars.iv.next, %62
  br i1 %63, label %39, label %._crit_edge, !llvm.loop !33

._crit_edge:                                      ; preds = %60, %35
  %indvars.iv.next55 = add nuw nsw i64 %indvars.iv54, 1
  %64 = load i32, ptr %10, align 4, !tbaa !20
  %65 = add i32 %64, -1
  %66 = zext i32 %65 to i64
  %67 = icmp samesign ult i64 %indvars.iv.next55, %66
  br i1 %67, label %14, label %._crit_edge50.loopexit, !llvm.loop !34

._crit_edge50.loopexit:                           ; preds = %._crit_edge
  %68 = and i64 %indvars.iv.next55, 4294967295
  br label %._crit_edge50

._crit_edge50:                                    ; preds = %._crit_edge50.loopexit, %8
  %.0.lcssa = phi i64 [ 0, %8 ], [ %68, %._crit_edge50.loopexit ]
  %69 = getelementptr inbounds nuw i8, ptr %1, i64 152
  %70 = load i64, ptr %69, align 8, !tbaa !11
  %71 = tail call i32 (ptr, i32, ptr, ...) @__fprintf_chk(ptr noundef %0, i32 noundef 1, ptr noundef nonnull @.str.11, i64 noundef %70) #13
  %72 = getelementptr inbounds nuw i8, ptr %1, i64 168
  %73 = load ptr, ptr %72, align 8, !tbaa !19
  %74 = getelementptr inbounds nuw %struct.FLAC__StreamMetadata_CueSheet_Track, ptr %73, i64 %.0.lcssa
  %75 = getelementptr inbounds nuw i8, ptr %74, i64 8
  %76 = load i8, ptr %75, align 8, !tbaa !31
  %77 = zext i8 %76 to i32
  %78 = load i64, ptr %74, align 8, !tbaa !29
  %79 = tail call i32 (ptr, i32, ptr, ...) @__fprintf_chk(ptr noundef %0, i32 noundef 1, ptr noundef nonnull @.str.12, i32 noundef %77, i64 noundef %78) #13
  ret void
}